target datalayout = "e-m:e-p270:32:32-p271:32:32-p272:64:64-i64:64-i128:128-f80:128-n8:16:32:64-S128"
target triple = "x86_64-pc-linux-gnu"

%struct.grpc_slice = type { ptr, %"union.grpc_slice::grpc_slice_data" }
%"union.grpc_slice::grpc_slice_data" = type { %"struct.grpc_slice::grpc_slice_data::grpc_slice_refcounted", [8 x i8] }
%"struct.grpc_slice::grpc_slice_data::grpc_slice_refcounted" = type { i64, ptr }
%"class.grpc_core::NewSliceRefcount" = type { %struct.grpc_slice_refcount, ptr, ptr }
%struct.grpc_slice_refcount = type { %"struct.std::atomic", ptr }
%"struct.std::atomic" = type { %"struct.std::__atomic_base" }
%"struct.std::__atomic_base" = type { i64 }

; Function Attrs: mustprogress nounwind uwtable
define linkonce_odr void @_ZNSt13__atomic_baseImEC2Em(ptr noundef nonnull align 8 dereferenceable(8) %0, i64 noundef %1) unnamed_addr #7 comdat align 2 {
  %3 = alloca ptr, align 8
  %4 = alloca i64, align 8
  store ptr %0, ptr %3, align 8, !tbaa !61
  store i64 %1, ptr %4, align 8, !tbaa !12
  %5 = load ptr, ptr %3, align 8
  %6 = getelementptr inbounds nuw %"struct.std::__atomic_base", ptr %5, i32 0, i32 0
  %7 = load i64, ptr %4, align 8, !tbaa !12
  store i64 %7, ptr %6, align 8, !tbaa !63
  ret void
}

; Function Attrs: mustprogress nounwind uwtable
define linkonce_odr void @_ZNSt6atomicImEC2Em(ptr noundef nonnull align 8 dereferenceable(8) %0, i64 noundef %1) unnamed_addr #7 comdat align 2 {
  %3 = alloca ptr, align 8
  %4 = alloca i64, align 8
  store ptr %0, ptr %3, align 8, !tbaa !59
  store i64 %1, ptr %4, align 8, !tbaa !12
  %5 = load ptr, ptr %3, align 8
  %6 = load i64, ptr %4, align 8, !tbaa !12
  call void @_ZNSt13__atomic_baseImEC2Em(ptr noundef nonnull align 8 dereferenceable(8) %5, i64 noundef %6) #3
  ret void
}

; Function Attrs: mustprogress nounwind uwtable
define linkonce_odr void @_ZN19grpc_slice_refcountC2EPFvPS_E(ptr noundef nonnull align 8 dereferenceable(16) %0, ptr noundef %1) unnamed_addr #7 comdat align 2 {
  %3 = alloca ptr, align 8
  %4 = alloca ptr, align 8
  store ptr %0, ptr %3, align 8, !tbaa !18
  store ptr %1, ptr %4, align 8, !tbaa !14
  %5 = load ptr, ptr %3, align 8
  %6 = getelementptr inbounds nuw %struct.grpc_slice_refcount, ptr %5, i32 0, i32 0
  call void @_ZNSt6atomicImEC2Em(ptr noundef nonnull align 8 dereferenceable(8) %6, i64 noundef 1) #3
  %7 = getelementptr inbounds nuw %struct.grpc_slice_refcount, ptr %5, i32 0, i32 1
  %8 = load ptr, ptr %4, align 8, !tbaa !14
  store ptr %8, ptr %7, align 8, !tbaa !47
  ret void
}

; Function Attrs: mustprogress uwtable
define linkonce_odr void @_ZN9grpc_core16NewSliceRefcountC2EPFvPvES1_(ptr noundef nonnull align 8 dereferenceable(32) %0, ptr noundef %1, ptr noundef %2) unnamed_addr #4 comdat align 2 {
  %4 = alloca ptr, align 8
  %5 = alloca ptr, align 8
  %6 = alloca ptr, align 8
  store ptr %0, ptr %4, align 8, !tbaa !19
  store ptr %1, ptr %5, align 8, !tbaa !14
  store ptr %2, ptr %6, align 8, !tbaa !14
  %7 = load ptr, ptr %4, align 8
  call void @_ZN19grpc_slice_refcountC2EPFvPS_E(ptr noundef nonnull align 8 dereferenceable(16) %7, ptr noundef @_ZN9grpc_core16NewSliceRefcount7DestroyEP19grpc_slice_refcount)
  %8 = getelementptr inbounds nuw %"class.grpc_core::NewSliceRefcount", ptr %7, i32 0, i32 1
  %9 = load ptr, ptr %5, align 8, !tbaa !14
  store ptr %9, ptr %8, align 8, !tbaa !21
  %10 = getelementptr inbounds nuw %"class.grpc_core::NewSliceRefcount", ptr %7, i32 0, i32 2
  %11 = load ptr, ptr %6, align 8, !tbaa !14
  store ptr %11, ptr %10, align 8, !tbaa !26
  ret void
}

; Function Attrs: mustprogress uwtable
define void @grpc_slice_new_with_user_data(ptr dead_on_unwind noalias writable sret(%struct.grpc_slice) align 8 %0, ptr noundef %1, i64 noundef %2, ptr noundef %3, ptr noundef %4) #4 personality ptr @__gxx_personality_v0 {
  %6 = alloca ptr, align 8
  %7 = alloca i64, align 8
  %8 = alloca ptr, align 8
  %9 = alloca ptr, align 8
  %10 = alloca ptr, align 8
  %11 = alloca i32, align 4
  store ptr %1, ptr %6, align 8, !tbaa !14
  store i64 %2, ptr %7, align 8, !tbaa !12
  store ptr %3, ptr %8, align 8, !tbaa !14
  store ptr %4, ptr %9, align 8, !tbaa !14
  %12 = call noalias noundef nonnull ptr @_Znwm(i64 noundef 32) #20
  %13 = load ptr, ptr %8, align 8, !tbaa !14
  %14 = load ptr, ptr %9, align 8, !tbaa !14
  invoke void @_ZN9grpc_core16NewSliceRefcountC2EPFvPvES1_(ptr noundef nonnull align 8 dereferenceable(32) %12, ptr noundef %13, ptr noundef %14)
          to label %15 unwind label %23

15:                                               ; preds = %5
  %16 = getelementptr inbounds nuw %struct.grpc_slice, ptr %0, i32 0, i32 0
  store ptr %12, ptr %16, align 8, !tbaa !3
  %17 = load ptr, ptr %6, align 8, !tbaa !14
  %18 = getelementptr inbounds nuw %struct.grpc_slice, ptr %0, i32 0, i32 1
  %19 = getelementptr inbounds nuw %"struct.grpc_slice::grpc_slice_data::grpc_slice_refcounted", ptr %18, i32 0, i32 1
  store ptr %17, ptr %19, align 8, !tbaa !9
  %20 = load i64, ptr %7, align 8, !tbaa !12
  %21 = getelementptr inbounds nuw %struct.grpc_slice, ptr %0, i32 0, i32 1
  %22 = getelementptr inbounds nuw %"struct.grpc_slice::grpc_slice_data::grpc_slice_refcounted", ptr %21, i32 0, i32 0
  store i64 %20, ptr %22, align 8, !tbaa !9
  ret void

23:                                               ; preds = %5
  %24 = landingpad { ptr, i32 }
          cleanup
  %25 = extractvalue { ptr, i32 } %24, 0
  store ptr %25, ptr %10, align 8
  %26 = extractvalue { ptr, i32 } %24, 1
  store i32 %26, ptr %11, align 4
  call void @_ZdlPvm(ptr noundef %12, i64 noundef 32) #21
  br label %27

27:                                               ; preds = %23
  %28 = load ptr, ptr %10, align 8
  %29 = load i32, ptr %11, align 4
  %30 = insertvalue { ptr, i32 } poison, ptr %28, 0
  %31 = insertvalue { ptr, i32 } %30, i32 %29, 1
  resume { ptr, i32 } %31
}

; Function Attrs: mustprogress uwtable
define void @grpc_slice_new(ptr dead_on_unwind noalias writable sret(%struct.grpc_slice) align 8 %0, ptr noundef %1, i64 noundef %2, ptr noundef %3) #4 {
  %5 = alloca ptr, align 8
  %6 = alloca i64, align 8
  %7 = alloca ptr, align 8
  store ptr %1, ptr %5, align 8, !tbaa !14
  store i64 %2, ptr %6, align 8, !tbaa !12
  store ptr %3, ptr %7, align 8, !tbaa !14
  %8 = load ptr, ptr %5, align 8, !tbaa !14
  %9 = load i64, ptr %6, align 8, !tbaa !12
  %10 = load ptr, ptr %7, align 8, !tbaa !14
  %11 = load ptr, ptr %5, align 8, !tbaa !14
  call void @grpc_slice_new_with_user_data(ptr dead_on_unwind writable sret(%struct.grpc_slice) align 8 %0, ptr noundef %8, i64 noundef %9, ptr noundef %10, ptr noundef %11)
  ret void
}