; Function Attrs: mustprogress uwtable
define void @grpc_slice_new(ptr dead_on_unwind noalias writable writeonly sret(%struct.grpc_slice) align 8 captures(none) initializes((0, 24)) %0, ptr noundef %1, i64 noundef %2, ptr noundef %3) local_unnamed_addr #3 personality ptr @__gxx_personality_v0 {
  tail call void @llvm.experimental.noalias.scope.decl(metadata !36)
  %5 = tail call noalias noundef nonnull dereferenceable(32) ptr @_Znwm(i64 noundef 32) #28, !noalias !36
  store i64 1, ptr %5, align 8, !tbaa !20, !noalias !36
  %6 = getelementptr inbounds nuw i8, ptr %5, i64 8
  store ptr @_ZN9grpc_core16NewSliceRefcount7DestroyEP19grpc_slice_refcount, ptr %6, align 8, !tbaa !23, !noalias !36
  %7 = getelementptr inbounds nuw i8, ptr %5, i64 16
  store ptr %3, ptr %7, align 8, !tbaa !33, !noalias !36
  %8 = getelementptr inbounds nuw i8, ptr %5, i64 24
  store ptr %1, ptr %8, align 8, !tbaa !35, !noalias !36
  store ptr %5, ptr %0, align 8, !tbaa !3, !alias.scope !36
  %9 = getelementptr inbounds nuw i8, ptr %0, i64 8
  %10 = getelementptr inbounds nuw i8, ptr %0, i64 16
  store ptr %1, ptr %10, align 8, !tbaa !9, !alias.scope !36
  store i64 %2, ptr %9, align 8, !tbaa !9, !alias.scope !36
  ret void
}